Certificate:
    Data:
        Version: 3 (0x2)
        Serial Number:
            f6:64:6a:e9:28:d7:1a:64
        Signature Algorithm: sha1WithRSAEncryption
        Issuer: C=OH, ST=OH, L=Cincinnati, O=Modulus, OU=Testing, CN=Erin/emailAddress=erin@modulus.io
        Validity
            Not Before: Jun 19 15:00:30 2013 GMT
            Not After : Jun 18 15:00:30 2016 GMT
        Subject: C=OH, ST=OH, L=Cincinnati, O=Modulus, OU=Testing, CN=Erin/emailAddress=erin@modulus.io
        Subject Public Key Info:
            Public Key Algorithm: rsaEncryption
            RSA Public Key: (1024 bit)
                Modulus (1024 bit):
                    00:92:ce:d8:b5:2d:66:55:62:91:32:a7:b7:36:fc:
                    ee:6f:fb:f3:1e:3a:21:68:a6:cd:73:b0:5a:45:5b:
                    0f:f7:8d:f7:ea:fe:93:32:4c:63:eb:57:d8:34:af:
                    a0:74:9a:bc:bf:b3:6c:7e:6d:97:c0:38:5b:05:ff:
                    02:3a:46:1f:38:bf:51:98:99:e2:02:86:54:da:80:
                    3a:ac:3c:41:b4:42:ad:23:dc:bd:b4:1d:18:e1:61:
                    02:4c:0e:a5:e1:20:27:b7:c5:71:0f:6e:d8:d9:a3:
                    44:cb:bd:14:b3:ae:a8:43:5d:05:2b:b1:a5:17:f8:
                    9a:8c:33:cc:2d:b0:db:4e:2b
                Exponent: 65537 (0x10001)
        X509v3 extensions:
            X509v3 Subject Key Identifier: 
                AA:14:34:EC:9E:07:75:90:8F:1D:7B:DF:12:B9:82:70:93:16:5E:BF
            X509v3 Authority Key Identifier: 
                keyid:AA:14:34:EC:9E:07:75:90:8F:1D:7B:DF:12:B9:82:70:93:16:5E:BF
                DirName:/C=OH/ST=OH/L=Cincinnati/O=Modulus/OU=Testing/CN=Erin/emailAddress=erin@modulus.io
                serial:F6:64:6A:E9:28:D7:1A:64

            X509v3 Basic Constraints: 
                CA:TRUE
    Signature Algorithm: sha1WithRSAEncryption
        5f:70:bb:43:d4:79:23:0b:9d:0a:e0:be:6a:8b:28:fb:4a:39:
        f1:c1:1c:22:48:d2:7e:25:bd:2f:7e:70:ff:80:2b:e9:9c:cd:
        ff:30:aa:84:ef:90:e6:0b:60:a1:59:24:fd:e6:0a:49:8a:5c:
        f7:75:db:9f:73:2e:45:73:74:d0:21:35:98:f5:7c:81:63:31:
        71:69:32:f0:48:bc:3f:83:2f:00:35:72:4e:d6:85:b8:c0:59:
        27:a3:65:ef:4c:93:26:84:9f:a2:90:ee:8a:33:a9:cf:26:dd:
        23:bf:87:28:0b:9d:0e:b6:08:2f:49:5b:d9:1f:8f:08:53:df:
        08:21
-----BEGIN CERTIFICATE-----
MIIDbzCCAtigAwIBAgIJAPZkauko1xpkMA0GCSqGSIb3DQEBBQUAMIGCMQswCQYD
VQQGEwJPSDELMAkGA1UECBMCT0gxEzARBgNVBAcTCkNpbmNpbm5hdGkxEDAOBgNV
BAoTB01vZHVsdXMxEDAOBgNVBAsTB1Rlc3RpbmcxDTALBgNVBAMTBEVyaW4xHjAc
BgkqhkiG9w0BCQEWD2VyaW5AbW9kdWx1cy5pbzAeFw0xMzA2MTkxNTAwMzBaFw0x
NjA2MTgxNTAwMzBaMIGCMQswCQYDVQQGEwJPSDELMAkGA1UECBMCT0gxEzARBgNV
BAcTCkNpbmNpbm5hdGkxEDAOBgNVBAoTB01vZHVsdXMxEDAOBgNVBAsTB1Rlc3Rp
bmcxDTALBgNVBAMTBEVyaW4xHjAcBgkqhkiG9w0BCQEWD2VyaW5AbW9kdWx1cy5p
bzCBnzANBgkqhkiG9w0BAQEFAAOBjQAwgYkCgYEAks7YtS1mVWKRMqe3Nvzub/vz
HjohaKbNc7BaRVsP94336v6TMkxj61fYNK+gdJq8v7Nsfm2XwDhbBf8COkYfOL9R
mJniAoZU2oA6rDxBtEKtI9y9tB0Y4WECTA6l4SAnt8VxD27Y2aNEy70Us66oQ10F
K7GlF/iajDPMLbDbTisCAwEAAaOB6jCB5zAdBgNVHQ4EFgQUqhQ07J4HdZCPHXvf
ErmCcJMWXr8wgbcGA1UdIwSBrzCBrIAUqhQ07J4HdZCPHXvfErmCcJMWXr+hgYik
gYUwgYIxCzAJBgNVBAYTAk9IMQswCQYDVQQIEwJPSDETMBEGA1UEBxMKQ2luY2lu
bmF0aTEQMA4GA1UEChMHTW9kdWx1czEQMA4GA1UECxMHVGVzdGluZzENMAsGA1UE
AxMERXJpbjEeMBwGCSqGSIb3DQEJARYPZXJpbkBtb2R1bHVzLmlvggkA9mRq6SjX
GmQwDAYDVR0TBAUwAwEB/zANBgkqhkiG9w0BAQUFAAOBgQBfcLtD1HkjC50K4L5q
iyj7SjnxwRwiSNJ+Jb0vfnD/gCvpnM3/MKqE75DmC2ChWST95gpJilz3ddufcy5F
c3TQITWY9XyBYzFxaTLwSLw/gy8ANXJO1oW4wFkno2XvTJMmhJ+ikO6KM6nPJt0j
v4coC50OtggvSVvZH48IU98IIQ==
-----END CERTIFICATE-----
